target datalayout = "e-m:e-p270:32:32-p271:32:32-p272:64:64-i64:64-i128:128-f80:128-n8:16:32:64-S128"
target triple = "x86_64-pc-linux-gnu"

%"class.pxrInternal_v0_24__pxrReserved__::GfVec4f" = type { [4 x float] }

; Function Attrs: mustprogress nounwind uwtable
define linkonce_odr noundef zeroext i1 @_ZN32pxrInternal_v0_24__pxrReserved__9GfIsCloseEddd(double noundef %0, double noundef %1, double noundef %2) #1 comdat {
  %4 = alloca double, align 8
  %5 = alloca double, align 8
  %6 = alloca double, align 8
  store double %0, ptr %4, align 8
  store double %1, ptr %5, align 8
  store double %2, ptr %6, align 8
  %7 = load double, ptr %4, align 8
  %8 = load double, ptr %5, align 8
  %9 = fsub double %7, %8
  %10 = call double @llvm.fabs.f64(double %9)
  %11 = load double, ptr %6, align 8
  %12 = fcmp olt double %10, %11
  ret i1 %12
}

; Function Attrs: mustprogress nounwind uwtable
define internal noundef zeroext i1 @_ZN32pxrInternal_v0_24__pxrReserved__L8_IsCloseERKfS1_(ptr noundef nonnull align 4 dereferenceable(4) %0, ptr noundef nonnull align 4 dereferenceable(4) %1) #1 {
  %3 = alloca ptr, align 8
  %4 = alloca ptr, align 8
  store ptr %0, ptr %3, align 8
  store ptr %1, ptr %4, align 8
  %5 = load ptr, ptr %3, align 8
  %6 = load float, ptr %5, align 4
  %7 = fpext float %6 to double
  %8 = load ptr, ptr %4, align 8
  %9 = load float, ptr %8, align 4
  %10 = fpext float %9 to double
  %11 = call noundef zeroext i1 @_ZN32pxrInternal_v0_24__pxrReserved__9GfIsCloseEddd(double noundef %7, double noundef %10, double noundef 0x3EB0C6F7A0B5ED8D)
  ret i1 %11
}

; Function Attrs: mustprogress nounwind uwtable
define linkonce_odr noundef nonnull align 4 dereferenceable(4) ptr @_ZNK32pxrInternal_v0_24__pxrReserved__7GfVec4fixEm(ptr noundef nonnull align 4 dereferenceable(16) %0, i64 noundef %1) #1 comdat align 2 {
  %3 = alloca ptr, align 8
  %4 = alloca i64, align 8
  store ptr %0, ptr %3, align 8
  store i64 %1, ptr %4, align 8
  %5 = load ptr, ptr %3, align 8
  %6 = getelementptr inbounds nuw %"class.pxrInternal_v0_24__pxrReserved__::GfVec4f", ptr %5, i32 0, i32 0
  %7 = load i64, ptr %4, align 8
  %8 = getelementptr inbounds [4 x float], ptr %6, i64 0, i64 %7
  ret ptr %8
}

; Function Attrs: mustprogress uwtable
define internal noundef zeroext i1 @_ZN32pxrInternal_v0_24__pxrReserved__L8_IsCloseINS_7GfVec4fETnPNSt9enable_ifIXsr9GfIsGfVecIT_EE5valueEvE4typeELPv0EEEbRKS3_S9_(ptr noundef nonnull align 4 dereferenceable(16) %0, ptr noundef nonnull align 4 dereferenceable(16) %1) #0 {
  %3 = alloca i1, align 1
  %4 = alloca ptr, align 8
  %5 = alloca ptr, align 8
  %6 = alloca i64, align 8
  store ptr %0, ptr %4, align 8
  store ptr %1, ptr %5, align 8
  store i64 0, ptr %6, align 8
  br label %7

7:                                                ; preds = %20, %2
  %8 = load i64, ptr %6, align 8
  %9 = icmp ult i64 %8, 4
  br i1 %9, label %10, label %23

10:                                               ; preds = %7
  %11 = load ptr, ptr %4, align 8
  %12 = load i64, ptr %6, align 8
  %13 = call noundef nonnull align 4 dereferenceable(4) ptr @_ZNK32pxrInternal_v0_24__pxrReserved__7GfVec4fixEm(ptr noundef nonnull align 4 dereferenceable(16) %11, i64 noundef %12)
  %14 = load ptr, ptr %5, align 8
  %15 = load i64, ptr %6, align 8
  %16 = call noundef nonnull align 4 dereferenceable(4) ptr @_ZNK32pxrInternal_v0_24__pxrReserved__7GfVec4fixEm(ptr noundef nonnull align 4 dereferenceable(16) %14, i64 noundef %15)
  %17 = call noundef zeroext i1 @_ZN32pxrInternal_v0_24__pxrReserved__L8_IsCloseERKfS1_(ptr noundef nonnull align 4 dereferenceable(4) %13, ptr noundef nonnull align 4 dereferenceable(4) %16)
  br i1 %17, label %19, label %18

18:                                               ; preds = %10
  store i1 false, ptr %3, align 1
  br label %24

19:                                               ; preds = %10
  br label %20

20:                                               ; preds = %19
  %21 = load i64, ptr %6, align 8
  %22 = add i64 %21, 1
  store i64 %22, ptr %6, align 8
  br label %7, !llvm.loop !11

23:                                               ; preds = %7
  store i1 true, ptr %3, align 1
  br label %24

24:                                               ; preds = %23, %18
  %25 = load i1, ptr %3, align 1
  ret i1 %25
}

; Function Attrs: mustprogress uwtable
define internal noundef zeroext i1 @_ZN32pxrInternal_v0_24__pxrReserved__L8_IsCloseINS_7GfVec4fEEEbRKNS_7VtArrayIT_EES6_(ptr noundef nonnull align 8 dereferenceable(40) %0, ptr noundef nonnull align 8 dereferenceable(40) %1) #0 {
  %3 = alloca i1, align 1
  %4 = alloca ptr, align 8
  %5 = alloca ptr, align 8
  %6 = alloca i64, align 8
  store ptr %0, ptr %4, align 8
  store ptr %1, ptr %5, align 8
  %7 = load ptr, ptr %4, align 8
  %8 = call noundef i64 @_ZNK32pxrInternal_v0_24__pxrReserved__7VtArrayINS_7GfVec4fEE4sizeEv(ptr noundef nonnull align 8 dereferenceable(40) %7)
  %9 = load ptr, ptr %5, align 8
  %10 = call noundef i64 @_ZNK32pxrInternal_v0_24__pxrReserved__7VtArrayINS_7GfVec4fEE4sizeEv(ptr noundef nonnull align 8 dereferenceable(40) %9)
  %11 = icmp ne i64 %8, %10
  br i1 %11, label %12, label %13

12:                                               ; preds = %2
  store i1 false, ptr %3, align 1
  br label %33

13:                                               ; preds = %2
  store i64 0, ptr %6, align 8
  br label %14

14:                                               ; preds = %29, %13
  %15 = load i64, ptr %6, align 8
  %16 = load ptr, ptr %4, align 8
  %17 = call noundef i64 @_ZNK32pxrInternal_v0_24__pxrReserved__7VtArrayINS_7GfVec4fEE4sizeEv(ptr noundef nonnull align 8 dereferenceable(40) %16)
  %18 = icmp ult i64 %15, %17
  br i1 %18, label %19, label %32

19:                                               ; preds = %14
  %20 = load ptr, ptr %4, align 8
  %21 = load i64, ptr %6, align 8
  %22 = call noundef nonnull align 4 dereferenceable(16) ptr @_ZNK32pxrInternal_v0_24__pxrReserved__7VtArrayINS_7GfVec4fEEixEm(ptr noundef nonnull align 8 dereferenceable(40) %20, i64 noundef %21)
  %23 = load ptr, ptr %5, align 8
  %24 = load i64, ptr %6, align 8
  %25 = call noundef nonnull align 4 dereferenceable(16) ptr @_ZNK32pxrInternal_v0_24__pxrReserved__7VtArrayINS_7GfVec4fEEixEm(ptr noundef nonnull align 8 dereferenceable(40) %23, i64 noundef %24)
  %26 = call noundef zeroext i1 @_ZN32pxrInternal_v0_24__pxrReserved__L8_IsCloseINS_7GfVec4fETnPNSt9enable_ifIXsr9GfIsGfVecIT_EE5valueEvE4typeELPv0EEEbRKS3_S9_(ptr noundef nonnull align 4 dereferenceable(16) %22, ptr noundef nonnull align 4 dereferenceable(16) %25)
  br i1 %26, label %28, label %27

27:                                               ; preds = %19
  store i1 false, ptr %3, align 1
  br label %33

28:                                               ; preds = %19
  br label %29

29:                                               ; preds = %28
  %30 = load i64, ptr %6, align 8
  %31 = add i64 %30, 1
  store i64 %31, ptr %6, align 8
  br label %14, !llvm.loop !18

32:                                               ; preds = %14
  store i1 true, ptr %3, align 1
  br label %33

33:                                               ; preds = %32, %27, %12
  %34 = load i1, ptr %3, align 1
  ret i1 %34
}