; Function Attrs: mustprogress uwtable
define internal fastcc noundef zeroext i1 @_ZN32pxrInternal_v0_24__pxrReserved__L8_IsCloseINS_7GfVec4fEEEbRKNS_7VtArrayIT_EES6_(ptr noundef nonnull align 8 dereferenceable(40) %0, ptr noundef nonnull align 8 dereferenceable(40) %1) unnamed_addr #0 {
  %3 = tail call noundef i64 @_ZNK32pxrInternal_v0_24__pxrReserved__7VtArrayINS_7GfVec4fEE4sizeEv(ptr noundef nonnull align 8 dereferenceable(40) %0)
  %4 = tail call noundef i64 @_ZNK32pxrInternal_v0_24__pxrReserved__7VtArrayINS_7GfVec4fEE4sizeEv(ptr noundef nonnull align 8 dereferenceable(40) %1)
  %.not = icmp eq i64 %3, %4
  br i1 %.not, label %.preheader, label %.loopexit

.preheader:                                       ; preds = %2
  %5 = tail call noundef i64 @_ZNK32pxrInternal_v0_24__pxrReserved__7VtArrayINS_7GfVec4fEE4sizeEv(ptr noundef nonnull align 8 dereferenceable(40) %0)
  %.not12 = icmp eq i64 %5, 0
  br i1 %.not12, label %.loopexit, label %.lr.ph

6:                                                ; preds = %_ZN32pxrInternal_v0_24__pxrReserved__L8_IsCloseINS_7GfVec4fETnPNSt9enable_ifIXsr9GfIsGfVecIT_EE5valueEvE4typeELPv0EEEbRKS3_S9_.exit
  %7 = add nuw i64 %.010, 1
  %8 = tail call noundef i64 @_ZNK32pxrInternal_v0_24__pxrReserved__7VtArrayINS_7GfVec4fEE4sizeEv(ptr noundef nonnull align 8 dereferenceable(40) %0)
  %9 = icmp ult i64 %7, %8
  br i1 %9, label %.lr.ph, label %.loopexit, !llvm.loop !25

.lr.ph:                                           ; preds = %.preheader, %6
  %.010 = phi i64 [ %7, %6 ], [ 0, %.preheader ]
  %10 = tail call noundef nonnull align 4 dereferenceable(16) ptr @_ZNK32pxrInternal_v0_24__pxrReserved__7VtArrayINS_7GfVec4fEEixEm(ptr noundef nonnull align 8 dereferenceable(40) %0, i64 noundef %.010)
  %11 = tail call noundef nonnull align 4 dereferenceable(16) ptr @_ZNK32pxrInternal_v0_24__pxrReserved__7VtArrayINS_7GfVec4fEEixEm(ptr noundef nonnull align 8 dereferenceable(40) %1, i64 noundef %.010)
  br label %12

12:                                               ; preds = %12, %.lr.ph
  %.08.i = phi i64 [ 0, %.lr.ph ], [ %20, %12 ]
  %13 = getelementptr inbounds nuw [4 x float], ptr %10, i64 0, i64 %.08.i
  %14 = getelementptr inbounds nuw [4 x float], ptr %11, i64 0, i64 %.08.i
  %.val.i = load float, ptr %13, align 4
  %.val7.i = load float, ptr %14, align 4
  %15 = fpext float %.val.i to double
  %16 = fpext float %.val7.i to double
  %17 = fsub double %15, %16
  %18 = tail call double @llvm.fabs.f64(double %17)
  %19 = fcmp olt double %18, 0x3EB0C6F7A0B5ED8D
  %20 = add nuw nsw i64 %.08.i, 1
  %exitcond.i = icmp ne i64 %20, 4
  %or.cond.not.i = select i1 %19, i1 %exitcond.i, i1 false
  br i1 %or.cond.not.i, label %12, label %_ZN32pxrInternal_v0_24__pxrReserved__L8_IsCloseINS_7GfVec4fETnPNSt9enable_ifIXsr9GfIsGfVecIT_EE5valueEvE4typeELPv0EEEbRKS3_S9_.exit, !llvm.loop !11

_ZN32pxrInternal_v0_24__pxrReserved__L8_IsCloseINS_7GfVec4fETnPNSt9enable_ifIXsr9GfIsGfVecIT_EE5valueEvE4typeELPv0EEEbRKS3_S9_.exit: ; preds = %12
  br i1 %19, label %6, label %.loopexit

.loopexit:                                        ; preds = %_ZN32pxrInternal_v0_24__pxrReserved__L8_IsCloseINS_7GfVec4fETnPNSt9enable_ifIXsr9GfIsGfVecIT_EE5valueEvE4typeELPv0EEEbRKS3_S9_.exit, %6, %.preheader, %2
  %.09 = phi i1 [ false, %2 ], [ true, %.preheader ], [ %19, %6 ], [ %19, %_ZN32pxrInternal_v0_24__pxrReserved__L8_IsCloseINS_7GfVec4fETnPNSt9enable_ifIXsr9GfIsGfVecIT_EE5valueEvE4typeELPv0EEEbRKS3_S9_.exit ]
  ret i1 %.09
}